target datalayout = "e-m:e-p270:32:32-p271:32:32-p272:64:64-i64:64-i128:128-f80:128-n8:16:32:64-S128"
target triple = "x86_64-pc-linux-gnu"

%struct.EC_PKEY_CTX = type { ptr, ptr, ptr, i8, i8, ptr, ptr, i64, i64 }
%struct.evp_pkey_ctx_st = type { i32, ptr, ptr, ptr, ptr, %union.anon, %struct.anon.4, ptr, ptr, ptr, i32, i32, ptr, ptr, ptr, ptr, ptr, i8, ptr }
%union.anon = type { %struct.anon.0 }
%struct.anon.0 = type { ptr, ptr }
%struct.anon.4 = type { ptr, ptr, i64, i8 }

@.str = private unnamed_addr constant [32 x i8] c"../openssl/crypto/ec/ec_pmeth.c\00", align 1
@__func__.pkey_ec_derive = private unnamed_addr constant [15 x i8] c"pkey_ec_derive\00", align 1

; Function Attrs: nounwind uwtable
define internal i32 @pkey_ec_derive(ptr noundef %0, ptr noundef %1, ptr noundef %2) #0 {
  %4 = alloca i32, align 4
  %5 = alloca ptr, align 8
  %6 = alloca ptr, align 8
  %7 = alloca ptr, align 8
  %8 = alloca i32, align 4
  %9 = alloca i64, align 8
  %10 = alloca ptr, align 8
  %11 = alloca ptr, align 8
  %12 = alloca ptr, align 8
  %13 = alloca ptr, align 8
  %14 = alloca i32, align 4
  %15 = alloca ptr, align 8
  store ptr %0, ptr %5, align 8, !tbaa !3
  store ptr %1, ptr %6, align 8, !tbaa !39
  store ptr %2, ptr %7, align 8, !tbaa !40
  call void @llvm.lifetime.start.p0(i64 4, ptr %8) #7
  call void @llvm.lifetime.start.p0(i64 8, ptr %9) #7
  call void @llvm.lifetime.start.p0(i64 8, ptr %10) #7
  store ptr null, ptr %10, align 8, !tbaa !64
  call void @llvm.lifetime.start.p0(i64 8, ptr %11) #7
  call void @llvm.lifetime.start.p0(i64 8, ptr %12) #7
  call void @llvm.lifetime.start.p0(i64 8, ptr %13) #7
  %16 = load ptr, ptr %5, align 8, !tbaa !3
  %17 = getelementptr inbounds nuw %struct.evp_pkey_ctx_st, ptr %16, i32 0, i32 16
  %18 = load ptr, ptr %17, align 8, !tbaa !17
  store ptr %18, ptr %13, align 8, !tbaa !8
  %19 = load ptr, ptr %5, align 8, !tbaa !3
  %20 = getelementptr inbounds nuw %struct.evp_pkey_ctx_st, ptr %19, i32 0, i32 14
  %21 = load ptr, ptr %20, align 8, !tbaa !38
  %22 = icmp eq ptr %21, null
  br i1 %22, label %28, label %23

23:                                               ; preds = %3
  %24 = load ptr, ptr %5, align 8, !tbaa !3
  %25 = getelementptr inbounds nuw %struct.evp_pkey_ctx_st, ptr %24, i32 0, i32 15
  %26 = load ptr, ptr %25, align 8, !tbaa !65
  %27 = icmp eq ptr %26, null
  br i1 %27, label %28, label %29

28:                                               ; preds = %23, %3
  call void @ERR_new()
  call void @ERR_set_debug(ptr noundef @.str, i32 noundef 176, ptr noundef @__func__.pkey_ec_derive)
  call void (i32, i32, ptr, ...) @ERR_set_error(i32 noundef 16, i32 noundef 140, ptr noundef null)
  store i32 0, ptr %4, align 4
  store i32 1, ptr %14, align 4
  br label %86

29:                                               ; preds = %23
  %30 = load ptr, ptr %5, align 8, !tbaa !3
  %31 = getelementptr inbounds nuw %struct.evp_pkey_ctx_st, ptr %30, i32 0, i32 15
  %32 = load ptr, ptr %31, align 8, !tbaa !65
  %33 = call ptr @EVP_PKEY_get0_EC_KEY(ptr noundef %32)
  store ptr %33, ptr %12, align 8, !tbaa !36
  %34 = load ptr, ptr %12, align 8, !tbaa !36
  %35 = icmp eq ptr %34, null
  br i1 %35, label %36, label %37

36:                                               ; preds = %29
  call void @ERR_new()
  call void @ERR_set_debug(ptr noundef @.str, i32 noundef 181, ptr noundef @__func__.pkey_ec_derive)
  call void (i32, i32, ptr, ...) @ERR_set_error(i32 noundef 16, i32 noundef 140, ptr noundef null)
  store i32 0, ptr %4, align 4
  store i32 1, ptr %14, align 4
  br label %86

37:                                               ; preds = %29
  %38 = load ptr, ptr %13, align 8, !tbaa !8
  %39 = getelementptr inbounds nuw %struct.EC_PKEY_CTX, ptr %38, i32 0, i32 2
  %40 = load ptr, ptr %39, align 8, !tbaa !30
  %41 = icmp ne ptr %40, null
  br i1 %41, label %42, label %46

42:                                               ; preds = %37
  %43 = load ptr, ptr %13, align 8, !tbaa !8
  %44 = getelementptr inbounds nuw %struct.EC_PKEY_CTX, ptr %43, i32 0, i32 2
  %45 = load ptr, ptr %44, align 8, !tbaa !30
  br label %51

46:                                               ; preds = %37
  %47 = load ptr, ptr %5, align 8, !tbaa !3
  %48 = getelementptr inbounds nuw %struct.evp_pkey_ctx_st, ptr %47, i32 0, i32 14
  %49 = load ptr, ptr %48, align 8, !tbaa !38
  %50 = call ptr @EVP_PKEY_get0_EC_KEY(ptr noundef %49)
  br label %51

51:                                               ; preds = %46, %42
  %52 = phi ptr [ %45, %42 ], [ %50, %46 ]
  store ptr %52, ptr %11, align 8, !tbaa !36
  %53 = load ptr, ptr %6, align 8, !tbaa !39
  %54 = icmp ne ptr %53, null
  br i1 %54, label %69, label %55

55:                                               ; preds = %51
  call void @llvm.lifetime.start.p0(i64 8, ptr %15) #7
  %56 = load ptr, ptr %11, align 8, !tbaa !36
  %57 = call ptr @EC_KEY_get0_group(ptr noundef %56)
  store ptr %57, ptr %15, align 8, !tbaa !45
  %58 = load ptr, ptr %15, align 8, !tbaa !45
  %59 = icmp eq ptr %58, null
  br i1 %59, label %60, label %61

60:                                               ; preds = %55
  store i32 0, ptr %4, align 4
  store i32 1, ptr %14, align 4
  br label %68

61:                                               ; preds = %55
  %62 = load ptr, ptr %15, align 8, !tbaa !45
  %63 = call i32 @EC_GROUP_get_degree(ptr noundef %62)
  %64 = add nsw i32 %63, 7
  %65 = sdiv i32 %64, 8
  %66 = sext i32 %65 to i64
  %67 = load ptr, ptr %7, align 8, !tbaa !40
  store i64 %66, ptr %67, align 8, !tbaa !42
  store i32 1, ptr %4, align 4
  store i32 1, ptr %14, align 4
  br label %68

68:                                               ; preds = %61, %60
  call void @llvm.lifetime.end.p0(i64 8, ptr %15) #7
  br label %86

69:                                               ; preds = %51
  %70 = load ptr, ptr %12, align 8, !tbaa !36
  %71 = call ptr @EC_KEY_get0_public_key(ptr noundef %70)
  store ptr %71, ptr %10, align 8, !tbaa !64
  %72 = load ptr, ptr %7, align 8, !tbaa !40
  %73 = load i64, ptr %72, align 8, !tbaa !42
  store i64 %73, ptr %9, align 8, !tbaa !42
  %74 = load ptr, ptr %6, align 8, !tbaa !39
  %75 = load i64, ptr %9, align 8, !tbaa !42
  %76 = load ptr, ptr %10, align 8, !tbaa !64
  %77 = load ptr, ptr %11, align 8, !tbaa !36
  %78 = call i32 @ECDH_compute_key(ptr noundef %74, i64 noundef %75, ptr noundef %76, ptr noundef %77, ptr noundef null)
  store i32 %78, ptr %8, align 4, !tbaa !37
  %79 = load i32, ptr %8, align 4, !tbaa !37
  %80 = icmp sle i32 %79, 0
  br i1 %80, label %81, label %82

81:                                               ; preds = %69
  store i32 0, ptr %4, align 4
  store i32 1, ptr %14, align 4
  br label %86

82:                                               ; preds = %69
  %83 = load i32, ptr %8, align 4, !tbaa !37
  %84 = sext i32 %83 to i64
  %85 = load ptr, ptr %7, align 8, !tbaa !40
  store i64 %84, ptr %85, align 8, !tbaa !42
  store i32 1, ptr %4, align 4
  store i32 1, ptr %14, align 4
  br label %86

86:                                               ; preds = %82, %81, %68, %36, %28
  call void @llvm.lifetime.end.p0(i64 8, ptr %13) #7
  call void @llvm.lifetime.end.p0(i64 8, ptr %12) #7
  call void @llvm.lifetime.end.p0(i64 8, ptr %11) #7
  call void @llvm.lifetime.end.p0(i64 8, ptr %10) #7
  call void @llvm.lifetime.end.p0(i64 8, ptr %9) #7
  call void @llvm.lifetime.end.p0(i64 4, ptr %8) #7
  %87 = load i32, ptr %4, align 4
  ret i32 %87
}