; Function Attrs: nounwind uwtable
define internal fastcc range(i32 0, 2) i32 @pkey_ec_derive(ptr noundef readonly captures(none) %0, ptr noundef %1, ptr noundef captures(none) %2) unnamed_addr #1 {
  %4 = getelementptr inbounds nuw i8, ptr %0, i64 152
  %5 = load ptr, ptr %4, align 8, !tbaa !14
  %6 = getelementptr inbounds nuw i8, ptr %0, i64 136
  %7 = load ptr, ptr %6, align 8, !tbaa !33
  %8 = icmp eq ptr %7, null
  br i1 %8, label %13, label %9

9:                                                ; preds = %3
  %10 = getelementptr inbounds nuw i8, ptr %0, i64 144
  %11 = load ptr, ptr %10, align 8, !tbaa !58
  %12 = icmp eq ptr %11, null
  br i1 %12, label %13, label %14

13:                                               ; preds = %9, %3
  tail call void @ERR_new() #6
  tail call void @ERR_set_debug(ptr noundef nonnull @.str, i32 noundef 176, ptr noundef nonnull @__func__.pkey_ec_derive) #6
  tail call void (i32, i32, ptr, ...) @ERR_set_error(i32 noundef 16, i32 noundef 140, ptr noundef null) #6
  br label %41

14:                                               ; preds = %9
  %15 = tail call ptr @EVP_PKEY_get0_EC_KEY(ptr noundef nonnull %11) #6
  %16 = icmp eq ptr %15, null
  br i1 %16, label %17, label %18

17:                                               ; preds = %14
  tail call void @ERR_new() #6
  tail call void @ERR_set_debug(ptr noundef nonnull @.str, i32 noundef 181, ptr noundef nonnull @__func__.pkey_ec_derive) #6
  tail call void (i32, i32, ptr, ...) @ERR_set_error(i32 noundef 16, i32 noundef 140, ptr noundef null) #6
  br label %41

18:                                               ; preds = %14
  %19 = getelementptr inbounds nuw i8, ptr %5, i64 16
  %20 = load ptr, ptr %19, align 8, !tbaa !27
  %.not = icmp eq ptr %20, null
  br i1 %.not, label %21, label %24

21:                                               ; preds = %18
  %22 = load ptr, ptr %6, align 8, !tbaa !33
  %23 = tail call ptr @EVP_PKEY_get0_EC_KEY(ptr noundef %22) #6
  br label %24

24:                                               ; preds = %18, %21
  %25 = phi ptr [ %23, %21 ], [ %20, %18 ]
  %.not28 = icmp eq ptr %1, null
  br i1 %.not28, label %26, label %34

26:                                               ; preds = %24
  %27 = tail call ptr @EC_KEY_get0_group(ptr noundef %25) #6
  %28 = icmp eq ptr %27, null
  br i1 %28, label %41, label %29

29:                                               ; preds = %26
  %30 = tail call i32 @EC_GROUP_get_degree(ptr noundef nonnull %27) #6
  %31 = add nsw i32 %30, 7
  %32 = sdiv i32 %31, 8
  %33 = sext i32 %32 to i64
  store i64 %33, ptr %2, align 8, !tbaa !35
  br label %41

34:                                               ; preds = %24
  %35 = tail call ptr @EC_KEY_get0_public_key(ptr noundef nonnull %15) #6
  %36 = load i64, ptr %2, align 8, !tbaa !35
  %37 = tail call i32 @ECDH_compute_key(ptr noundef nonnull %1, i64 noundef %36, ptr noundef %35, ptr noundef %25, ptr noundef null) #6
  %38 = icmp slt i32 %37, 1
  br i1 %38, label %41, label %39

39:                                               ; preds = %34
  %40 = zext nneg i32 %37 to i64
  store i64 %40, ptr %2, align 8, !tbaa !35
  br label %41

41:                                               ; preds = %34, %29, %26, %39, %17, %13
  %.0 = phi i32 [ 0, %13 ], [ 0, %17 ], [ 1, %39 ], [ 1, %29 ], [ 0, %26 ], [ 0, %34 ]
  ret i32 %.0
}